target datalayout = "e-m:e-p270:32:32-p271:32:32-p272:64:64-i64:64-i128:128-f80:128-n8:16:32:64-S128"
target triple = "x86_64-pc-linux-gnu"

%"class.cv::bioinspired::MagnoRetinaFilter" = type <{ ptr, %"class.cv::bioinspired::BasicRetinaFilter", %"class.std::valarray", %"class.std::valarray", %"class.std::valarray", %"class.std::valarray", %"class.std::valarray", %"class.std::valarray", %"class.std::valarray", %"class.std::valarray", ptr, ptr, float, [4 x i8] }>
%"class.cv::bioinspired::BasicRetinaFilter" = type { %"class.cv::bioinspired::TemplateBuffer", %"class.std::valarray", i32, i32, %"class.std::valarray", %"class.std::valarray", %"class.std::valarray", float, float, float, float, float, float, float, float }
%"class.cv::bioinspired::TemplateBuffer" = type { ptr, %"class.std::valarray", i64, i64, i64, i64, i64 }
%"class.std::valarray" = type { i64, ptr }

; Function Attrs: inlinehint mustprogress uwtable
define linkonce_odr hidden noundef nonnull align 8 dereferenceable(64) ptr @_ZN2cv11bioinspired14TemplateBufferIfEaSERKf(ptr noundef nonnull align 8 dereferenceable(64) %0, ptr noundef nonnull align 4 dereferenceable(4) %1) #5 comdat align 2 {
  %3 = alloca ptr, align 8
  %4 = alloca ptr, align 8
  store ptr %0, ptr %3, align 8, !tbaa !32
  store ptr %1, ptr %4, align 8, !tbaa !30
  %5 = load ptr, ptr %3, align 8
  %6 = getelementptr inbounds i8, ptr %5, i64 8
  %7 = load ptr, ptr %4, align 8, !tbaa !30
  %8 = call noundef nonnull align 8 dereferenceable(16) ptr @_ZNSt8valarrayIfEaSERKf(ptr noundef nonnull align 8 dereferenceable(16) %6, ptr noundef nonnull align 4 dereferenceable(4) %7)
  ret ptr %5
}

; Function Attrs: inlinehint mustprogress nounwind uwtable
define linkonce_odr void @_ZSt15__valarray_fillIfEvPT_mRKS0_(ptr noalias noundef %0, i64 noundef %1, ptr noundef nonnull align 4 dereferenceable(4) %2) #6 comdat {
  %4 = alloca ptr, align 8
  %5 = alloca i64, align 8
  %6 = alloca ptr, align 8
  store ptr %0, ptr %4, align 8, !tbaa !30
  store i64 %1, ptr %5, align 8, !tbaa !24
  store ptr %2, ptr %6, align 8, !tbaa !30
  br label %7

7:                                                ; preds = %11, %3
  %8 = load i64, ptr %5, align 8, !tbaa !24
  %9 = add i64 %8, -1
  store i64 %9, ptr %5, align 8, !tbaa !24
  %10 = icmp ne i64 %8, 0
  br i1 %10, label %11, label %16

11:                                               ; preds = %7
  %12 = load ptr, ptr %6, align 8, !tbaa !30
  %13 = load float, ptr %12, align 4, !tbaa !27
  %14 = load ptr, ptr %4, align 8, !tbaa !30
  %15 = getelementptr inbounds nuw float, ptr %14, i32 1
  store ptr %15, ptr %4, align 8, !tbaa !30
  store float %13, ptr %14, align 4, !tbaa !27
  br label %7, !llvm.loop !55

16:                                               ; preds = %7
  ret void
}

; Function Attrs: inlinehint mustprogress uwtable
define linkonce_odr hidden void @_ZN2cv11bioinspired17BasicRetinaFilter20clearSecondaryBufferEv(ptr noundef nonnull align 8 dereferenceable(168) %0) #5 comdat align 2 {
  %2 = alloca ptr, align 8
  %3 = alloca float, align 4
  store ptr %0, ptr %2, align 8, !tbaa !28
  %4 = load ptr, ptr %2, align 8
  call void @llvm.lifetime.start.p0(i64 4, ptr %3) #3
  store float 0.000000e+00, ptr %3, align 4, !tbaa !27
  %5 = getelementptr inbounds nuw %"class.cv::bioinspired::BasicRetinaFilter", ptr %4, i32 0, i32 1
  %6 = call noundef nonnull align 8 dereferenceable(16) ptr @_ZNSt8valarrayIfEaSERKf(ptr noundef nonnull align 8 dereferenceable(16) %5, ptr noundef nonnull align 4 dereferenceable(4) %3)
  call void @llvm.lifetime.end.p0(i64 4, ptr %3) #3
  ret void
}

; Function Attrs: inlinehint mustprogress uwtable
define linkonce_odr hidden void @_ZN2cv11bioinspired17BasicRetinaFilter17clearOutputBufferEv(ptr noundef nonnull align 8 dereferenceable(168) %0) #5 comdat align 2 {
  %2 = alloca ptr, align 8
  %3 = alloca float, align 4
  store ptr %0, ptr %2, align 8, !tbaa !28
  %4 = load ptr, ptr %2, align 8
  call void @llvm.lifetime.start.p0(i64 4, ptr %3) #3
  store float 0.000000e+00, ptr %3, align 4, !tbaa !27
  %5 = getelementptr inbounds nuw %"class.cv::bioinspired::BasicRetinaFilter", ptr %4, i32 0, i32 0
  %6 = call noundef nonnull align 8 dereferenceable(64) ptr @_ZN2cv11bioinspired14TemplateBufferIfEaSERKf(ptr noundef nonnull align 8 dereferenceable(64) %5, ptr noundef nonnull align 4 dereferenceable(4) %3)
  call void @llvm.lifetime.end.p0(i64 4, ptr %3) #3
  ret void
}

; Function Attrs: inlinehint mustprogress uwtable
define linkonce_odr hidden noundef nonnull align 8 dereferenceable(16) ptr @_ZNSt8valarrayIfEaSERKf(ptr noundef nonnull align 8 dereferenceable(16) %0, ptr noundef nonnull align 4 dereferenceable(4) %1) #5 comdat align 2 {
  %3 = alloca ptr, align 8
  %4 = alloca ptr, align 8
  store ptr %0, ptr %3, align 8, !tbaa !23
  store ptr %1, ptr %4, align 8, !tbaa !30
  %5 = load ptr, ptr %3, align 8
  %6 = getelementptr inbounds nuw %"class.std::valarray", ptr %5, i32 0, i32 1
  %7 = load ptr, ptr %6, align 8, !tbaa !26
  %8 = getelementptr inbounds nuw %"class.std::valarray", ptr %5, i32 0, i32 0
  %9 = load i64, ptr %8, align 8, !tbaa !25
  %10 = load ptr, ptr %4, align 8, !tbaa !30
  call void @_ZSt15__valarray_fillIfEvPT_mRKS0_(ptr noundef %7, i64 noundef %9, ptr noundef nonnull align 4 dereferenceable(4) %10)
  ret ptr %5
}

; Function Attrs: inlinehint mustprogress uwtable
define linkonce_odr hidden void @_ZN2cv11bioinspired17BasicRetinaFilter15clearAllBuffersEv(ptr noundef nonnull align 8 dereferenceable(168) %0) #5 comdat align 2 {
  %2 = alloca ptr, align 8
  store ptr %0, ptr %2, align 8, !tbaa !28
  %3 = load ptr, ptr %2, align 8
  call void @_ZN2cv11bioinspired17BasicRetinaFilter17clearOutputBufferEv(ptr noundef nonnull align 8 dereferenceable(168) %3)
  call void @_ZN2cv11bioinspired17BasicRetinaFilter20clearSecondaryBufferEv(ptr noundef nonnull align 8 dereferenceable(168) %3)
  ret void
}

; Function Attrs: mustprogress uwtable
define hidden void @_ZN2cv11bioinspired17MagnoRetinaFilter15clearAllBuffersEv(ptr noundef nonnull align 8 dereferenceable(324) %0) #4 align 2 {
  %2 = alloca ptr, align 8
  %3 = alloca float, align 4
  %4 = alloca float, align 4
  %5 = alloca float, align 4
  %6 = alloca float, align 4
  %7 = alloca float, align 4
  %8 = alloca float, align 4
  %9 = alloca float, align 4
  %10 = alloca float, align 4
  store ptr %0, ptr %2, align 8, !tbaa !3
  %11 = load ptr, ptr %2, align 8
  %12 = getelementptr inbounds i8, ptr %11, i64 8
  call void @_ZN2cv11bioinspired17BasicRetinaFilter15clearAllBuffersEv(ptr noundef nonnull align 8 dereferenceable(168) %12)
  call void @llvm.lifetime.start.p0(i64 4, ptr %3) #3
  store float 0.000000e+00, ptr %3, align 4, !tbaa !27
  %13 = getelementptr inbounds nuw %"class.cv::bioinspired::MagnoRetinaFilter", ptr %11, i32 0, i32 2
  %14 = call noundef nonnull align 8 dereferenceable(16) ptr @_ZNSt8valarrayIfEaSERKf(ptr noundef nonnull align 8 dereferenceable(16) %13, ptr noundef nonnull align 4 dereferenceable(4) %3)
  call void @llvm.lifetime.end.p0(i64 4, ptr %3) #3
  call void @llvm.lifetime.start.p0(i64 4, ptr %4) #3
  store float 0.000000e+00, ptr %4, align 4, !tbaa !27
  %15 = getelementptr inbounds nuw %"class.cv::bioinspired::MagnoRetinaFilter", ptr %11, i32 0, i32 3
  %16 = call noundef nonnull align 8 dereferenceable(16) ptr @_ZNSt8valarrayIfEaSERKf(ptr noundef nonnull align 8 dereferenceable(16) %15, ptr noundef nonnull align 4 dereferenceable(4) %4)
  call void @llvm.lifetime.end.p0(i64 4, ptr %4) #3
  call void @llvm.lifetime.start.p0(i64 4, ptr %5) #3
  store float 0.000000e+00, ptr %5, align 4, !tbaa !27
  %17 = getelementptr inbounds nuw %"class.cv::bioinspired::MagnoRetinaFilter", ptr %11, i32 0, i32 4
  %18 = call noundef nonnull align 8 dereferenceable(16) ptr @_ZNSt8valarrayIfEaSERKf(ptr noundef nonnull align 8 dereferenceable(16) %17, ptr noundef nonnull align 4 dereferenceable(4) %5)
  call void @llvm.lifetime.end.p0(i64 4, ptr %5) #3
  call void @llvm.lifetime.start.p0(i64 4, ptr %6) #3
  store float 0.000000e+00, ptr %6, align 4, !tbaa !27
  %19 = getelementptr inbounds nuw %"class.cv::bioinspired::MagnoRetinaFilter", ptr %11, i32 0, i32 5
  %20 = call noundef nonnull align 8 dereferenceable(16) ptr @_ZNSt8valarrayIfEaSERKf(ptr noundef nonnull align 8 dereferenceable(16) %19, ptr noundef nonnull align 4 dereferenceable(4) %6)
  call void @llvm.lifetime.end.p0(i64 4, ptr %6) #3
  call void @llvm.lifetime.start.p0(i64 4, ptr %7) #3
  store float 0.000000e+00, ptr %7, align 4, !tbaa !27
  %21 = getelementptr inbounds nuw %"class.cv::bioinspired::MagnoRetinaFilter", ptr %11, i32 0, i32 6
  %22 = call noundef nonnull align 8 dereferenceable(16) ptr @_ZNSt8valarrayIfEaSERKf(ptr noundef nonnull align 8 dereferenceable(16) %21, ptr noundef nonnull align 4 dereferenceable(4) %7)
  call void @llvm.lifetime.end.p0(i64 4, ptr %7) #3
  call void @llvm.lifetime.start.p0(i64 4, ptr %8) #3
  store float 0.000000e+00, ptr %8, align 4, !tbaa !27
  %23 = getelementptr inbounds nuw %"class.cv::bioinspired::MagnoRetinaFilter", ptr %11, i32 0, i32 7
  %24 = call noundef nonnull align 8 dereferenceable(16) ptr @_ZNSt8valarrayIfEaSERKf(ptr noundef nonnull align 8 dereferenceable(16) %23, ptr noundef nonnull align 4 dereferenceable(4) %8)
  call void @llvm.lifetime.end.p0(i64 4, ptr %8) #3
  call void @llvm.lifetime.start.p0(i64 4, ptr %9) #3
  store float 0.000000e+00, ptr %9, align 4, !tbaa !27
  %25 = getelementptr inbounds nuw %"class.cv::bioinspired::MagnoRetinaFilter", ptr %11, i32 0, i32 8
  %26 = call noundef nonnull align 8 dereferenceable(16) ptr @_ZNSt8valarrayIfEaSERKf(ptr noundef nonnull align 8 dereferenceable(16) %25, ptr noundef nonnull align 4 dereferenceable(4) %9)
  call void @llvm.lifetime.end.p0(i64 4, ptr %9) #3
  call void @llvm.lifetime.start.p0(i64 4, ptr %10) #3
  store float 0.000000e+00, ptr %10, align 4, !tbaa !27
  %27 = getelementptr inbounds nuw %"class.cv::bioinspired::MagnoRetinaFilter", ptr %11, i32 0, i32 9
  %28 = call noundef nonnull align 8 dereferenceable(16) ptr @_ZNSt8valarrayIfEaSERKf(ptr noundef nonnull align 8 dereferenceable(16) %27, ptr noundef nonnull align 4 dereferenceable(4) %10)
  call void @llvm.lifetime.end.p0(i64 4, ptr %10) #3
  ret void
}